target datalayout = "e-m:e-p270:32:32-p271:32:32-p272:64:64-i64:64-i128:128-f80:128-n8:16:32:64-S128"
target triple = "x86_64-pc-linux-gnu"

; Function Attrs: inlinehint nounwind willreturn memory(read) uwtable
define available_externally i32 @atoi(ptr noundef nonnull %0) #14 {
  %2 = alloca ptr, align 8
  store ptr %0, ptr %2, align 8, !tbaa !15
  %3 = load ptr, ptr %2, align 8, !tbaa !15
  %4 = call i64 @strtol(ptr noundef %3, ptr noundef null, i32 noundef 10) #15
  %5 = trunc i64 %4 to i32
  ret i32 %5
}

; Function Attrs: nounwind uwtable
define internal i32 @sapi_extract_response_code(ptr noundef %0) #0 {
  %2 = alloca ptr, align 8
  %3 = alloca i32, align 4
  %4 = alloca ptr, align 8
  store ptr %0, ptr %2, align 8, !tbaa !15
  call void @llvm.lifetime.start.p0(i64 4, ptr %3) #15
  store i32 200, ptr %3, align 4, !tbaa !17
  call void @llvm.lifetime.start.p0(i64 8, ptr %4) #15
  %5 = load ptr, ptr %2, align 8, !tbaa !15
  store ptr %5, ptr %4, align 8, !tbaa !15
  br label %6

6:                                                ; preds = %26, %1
  %7 = load ptr, ptr %4, align 8, !tbaa !15
  %8 = load i8, ptr %7, align 1, !tbaa !28
  %9 = icmp ne i8 %8, 0
  br i1 %9, label %10, label %29

10:                                               ; preds = %6
  %11 = load ptr, ptr %4, align 8, !tbaa !15
  %12 = load i8, ptr %11, align 1, !tbaa !28
  %13 = sext i8 %12 to i32
  %14 = icmp eq i32 %13, 32
  br i1 %14, label %15, label %25

15:                                               ; preds = %10
  %16 = load ptr, ptr %4, align 8, !tbaa !15
  %17 = getelementptr inbounds i8, ptr %16, i64 1
  %18 = load i8, ptr %17, align 1, !tbaa !28
  %19 = sext i8 %18 to i32
  %20 = icmp ne i32 %19, 32
  br i1 %20, label %21, label %25

21:                                               ; preds = %15
  %22 = load ptr, ptr %4, align 8, !tbaa !15
  %23 = getelementptr inbounds i8, ptr %22, i64 1
  %24 = call i32 @atoi(ptr noundef %23) #16
  store i32 %24, ptr %3, align 4, !tbaa !17
  br label %29

25:                                               ; preds = %15, %10
  br label %26

26:                                               ; preds = %25
  %27 = load ptr, ptr %4, align 8, !tbaa !15
  %28 = getelementptr inbounds nuw i8, ptr %27, i32 1
  store ptr %28, ptr %4, align 8, !tbaa !15
  br label %6

29:                                               ; preds = %21, %6
  %30 = load i32, ptr %3, align 4, !tbaa !17
  call void @llvm.lifetime.end.p0(i64 8, ptr %4) #15
  call void @llvm.lifetime.end.p0(i64 4, ptr %3) #15
  ret i32 %30
}