; Function Attrs: nofree nounwind uwtable
define internal fastcc i32 @sapi_extract_response_code(ptr noundef readonly captures(none) %0) unnamed_addr #11 {
  br label %2

2:                                                ; preds = %11, %1
  %.0 = phi ptr [ %0, %1 ], [ %12, %11 ]
  %3 = load i8, ptr %.0, align 1, !tbaa !20
  switch i8 %3, label %11 [
    i8 0, label %.loopexit
    i8 32, label %4
  ]

4:                                                ; preds = %2
  %5 = getelementptr inbounds nuw i8, ptr %.0, i64 1
  %6 = load i8, ptr %5, align 1, !tbaa !20
  %.not8 = icmp eq i8 %6, 32
  br i1 %.not8, label %11, label %7

7:                                                ; preds = %4
  %8 = getelementptr inbounds nuw i8, ptr %.0, i64 1
  %9 = tail call i64 @strtol(ptr noundef nonnull captures(none) %8, ptr noundef null, i32 noundef 10) #19
  %10 = trunc i64 %9 to i32
  br label %.loopexit

11:                                               ; preds = %2, %4
  %12 = getelementptr inbounds nuw i8, ptr %.0, i64 1
  br label %2

.loopexit:                                        ; preds = %2, %7
  %.06 = phi i32 [ %10, %7 ], [ 200, %2 ]
  ret i32 %.06
}